(dp0
S'PRESSURE'
p1
(lp2
(I1373201989
I30
tp3
a(I1373209921
I35
tp4
a(I1373222477
I18
tp5
a(I1373248440
I9
tp6
a(I1373248663
I33
tp7
a(I1373253515
I36
tp8
a(I1373259666
I12
tp9
a(I1373261867
I5
tp10
a(I1373292564
I23
tp11
a(I1373300394
I35
tp12
asS'TEMPERATURE'
p13
(lp14
(I1373208312
I37
tp15
a(I1373221005
I30
tp16
a(I1373224547
I12
tp17
a(I1373229993
I32
tp18
a(I1373233946
I8
tp19
a(I1373256131
I27
tp20
a(I1373258328
I12
tp21
a(I1373272517
I12
tp22
a(I1373283318
I28
tp23
a(I1373291901
I19
tp24
as.